; Function Attrs: mustprogress nofree norecurse nosync nounwind willreturn memory(read, argmem: none, inaccessiblemem: none) uwtable
define internal range(i64 0, 8) i64 @H5O__btreek_size(ptr readnone captures(none) %0, i1 zeroext %1, ptr readnone captures(none) %2) #2 {
  %4 = load i8, ptr @H5O_init_g, align 1, !tbaa !3, !range !7, !noundef !8
  %5 = trunc nuw i8 %4 to i1
  %6 = load i8, ptr @H5_libterm_g, align 1, !range !7
  %7 = trunc nuw i8 %6 to i1
  %8 = xor i1 %7, true
  %9 = select i1 %5, i1 true, i1 %8
  %spec.select = select i1 %9, i64 7, i64 0, !prof !9
  ret i64 %spec.select
}